; Function Attrs: nofree norecurse nounwind memory(argmem: readwrite, inaccessiblemem: readwrite) uwtable
define void @EvictSessionFromCache(ptr noundef %0) local_unnamed_addr #8 {
  %2 = getelementptr inbounds nuw i8, ptr %0, i64 149
  %3 = ptrtoint ptr %2 to i64
  %4 = trunc i64 %3 to i32
  %5 = sub i32 0, %4
  %6 = and i32 %5, 7
  %7 = sub nuw nsw i32 48, %6
  %.not24.i = icmp eq i32 %6, 0
  br i1 %.not24.i, label %.lr.ph29.i.preheader, label %.lr.ph.i

.lr.ph29.i.preheader:                             ; preds = %.lr.ph.i, %1
  %.01528.i.ph = phi ptr [ %2, %1 ], [ %9, %.lr.ph.i ]
  br label %.lr.ph29.i

.lr.ph.i:                                         ; preds = %1, %.lr.ph.i
  %.126.i = phi i32 [ %8, %.lr.ph.i ], [ %6, %1 ]
  %.01625.i = phi ptr [ %9, %.lr.ph.i ], [ %2, %1 ]
  %8 = add nsw i32 %.126.i, -1
  %9 = getelementptr inbounds nuw i8, ptr %.01625.i, i64 1
  store volatile i8 0, ptr %.01625.i, align 1, !tbaa !43
  %.not.i = icmp eq i32 %8, 0
  br i1 %.not.i, label %.lr.ph29.i.preheader, label %.lr.ph.i, !llvm.loop !44

.preheader.i:                                     ; preds = %.lr.ph29.i
  %.not2232.i = icmp eq i32 %11, 0
  br i1 %.not2232.i, label %ForceZero.exit, label %.lr.ph35.i

.lr.ph29.i:                                       ; preds = %.lr.ph29.i.preheader, %.lr.ph29.i
  %.01528.i = phi ptr [ %10, %.lr.ph29.i ], [ %.01528.i.ph, %.lr.ph29.i.preheader ]
  %.01827.i = phi i32 [ %11, %.lr.ph29.i ], [ %7, %.lr.ph29.i.preheader ]
  %10 = getelementptr inbounds nuw i8, ptr %.01528.i, i64 8
  store volatile i64 0, ptr %.01528.i, align 8, !tbaa !27
  %11 = add nsw i32 %.01827.i, -8
  %12 = icmp ugt i32 %11, 7
  br i1 %12, label %.lr.ph29.i, label %.preheader.i, !llvm.loop !45

.lr.ph35.i:                                       ; preds = %.preheader.i, %.lr.ph35.i
  %.11734.i = phi ptr [ %14, %.lr.ph35.i ], [ %10, %.preheader.i ]
  %.11933.i = phi i32 [ %13, %.lr.ph35.i ], [ %11, %.preheader.i ]
  %13 = add i32 %.11933.i, -1
  %14 = getelementptr inbounds nuw i8, ptr %.11734.i, i64 1
  store volatile i8 0, ptr %.11734.i, align 1, !tbaa !43
  %.not22.i = icmp eq i32 %13, 0
  br i1 %.not22.i, label %ForceZero.exit, label %.lr.ph35.i, !llvm.loop !46

ForceZero.exit:                                   ; preds = %.lr.ph35.i, %.preheader.i
  %15 = getelementptr inbounds nuw i8, ptr %0, i64 116
  tail call void @llvm.memset.p0.i64(ptr noundef nonnull align 4 dereferenceable(33) %15, i8 0, i64 33, i1 false)
  ret void
}